; Function Attrs: nounwind uwtable
define ptr @l_Lean_Compiler_LCNF_mkFreshBinderName___boxed(ptr noundef %0, ptr noundef %1, ptr noundef %2, ptr noundef %3, ptr noundef %4, ptr noundef %5) local_unnamed_addr #2 {
  %7 = tail call ptr @l_Lean_Compiler_LCNF_mkFreshBinderName(ptr noundef %0, ptr poison, ptr noundef %2, ptr poison, ptr poison, ptr noundef %5)
  %8 = ptrtoint ptr %4 to i64
  %9 = and i64 %8, 1
  %.not = icmp eq i64 %9, 0
  br i1 %.not, label %10, label %lean_dec.exit13

10:                                               ; preds = %6
  %11 = load i32, ptr %4, align 4, !tbaa !8
  %12 = icmp sgt i32 %11, 1
  br i1 %12, label %13, label %15, !prof !11

13:                                               ; preds = %10
  %14 = add nsw i32 %11, -1
  store i32 %14, ptr %4, align 4, !tbaa !8
  br label %lean_dec.exit13

15:                                               ; preds = %10
  %.not.i = icmp eq i32 %11, 0
  br i1 %.not.i, label %lean_dec.exit13, label %16

16:                                               ; preds = %15
  tail call void @lean_dec_ref_cold(ptr noundef nonnull %4) #6
  br label %lean_dec.exit13

lean_dec.exit13:                                  ; preds = %16, %15, %13, %6
  %17 = ptrtoint ptr %3 to i64
  %18 = and i64 %17, 1
  %.not20 = icmp eq i64 %18, 0
  br i1 %.not20, label %19, label %lean_dec.exit12

19:                                               ; preds = %lean_dec.exit13
  %20 = load i32, ptr %3, align 4, !tbaa !8
  %21 = icmp sgt i32 %20, 1
  br i1 %21, label %22, label %24, !prof !11

22:                                               ; preds = %19
  %23 = add nsw i32 %20, -1
  store i32 %23, ptr %3, align 4, !tbaa !8
  br label %lean_dec.exit12

24:                                               ; preds = %19
  %.not.i14 = icmp eq i32 %20, 0
  br i1 %.not.i14, label %lean_dec.exit12, label %25

25:                                               ; preds = %24
  tail call void @lean_dec_ref_cold(ptr noundef nonnull %3) #6
  br label %lean_dec.exit12

lean_dec.exit12:                                  ; preds = %25, %24, %22, %lean_dec.exit13
  %26 = ptrtoint ptr %2 to i64
  %27 = and i64 %26, 1
  %.not21 = icmp eq i64 %27, 0
  br i1 %.not21, label %28, label %lean_dec.exit11

28:                                               ; preds = %lean_dec.exit12
  %29 = load i32, ptr %2, align 4, !tbaa !8
  %30 = icmp sgt i32 %29, 1
  br i1 %30, label %31, label %33, !prof !11

31:                                               ; preds = %28
  %32 = add nsw i32 %29, -1
  store i32 %32, ptr %2, align 4, !tbaa !8
  br label %lean_dec.exit11

33:                                               ; preds = %28
  %.not.i16 = icmp eq i32 %29, 0
  br i1 %.not.i16, label %lean_dec.exit11, label %34

34:                                               ; preds = %33
  tail call void @lean_dec_ref_cold(ptr noundef nonnull %2) #6
  br label %lean_dec.exit11

lean_dec.exit11:                                  ; preds = %34, %33, %31, %lean_dec.exit12
  %35 = ptrtoint ptr %1 to i64
  %36 = and i64 %35, 1
  %.not22 = icmp eq i64 %36, 0
  br i1 %.not22, label %37, label %lean_dec.exit

37:                                               ; preds = %lean_dec.exit11
  %38 = load i32, ptr %1, align 4, !tbaa !8
  %39 = icmp sgt i32 %38, 1
  br i1 %39, label %40, label %42, !prof !11

40:                                               ; preds = %37
  %41 = add nsw i32 %38, -1
  store i32 %41, ptr %1, align 4, !tbaa !8
  br label %lean_dec.exit

42:                                               ; preds = %37
  %.not.i18 = icmp eq i32 %38, 0
  br i1 %.not.i18, label %lean_dec.exit, label %43

43:                                               ; preds = %42
  tail call void @lean_dec_ref_cold(ptr noundef nonnull %1) #6
  br label %lean_dec.exit

lean_dec.exit:                                    ; preds = %43, %42, %40, %lean_dec.exit11
  ret ptr %7
}